target datalayout = "e-m:e-p270:32:32-p271:32:32-p272:64:64-i64:64-i128:128-f80:128-n8:16:32:64-S128"
target triple = "x86_64-pc-linux-gnu"

%struct.SpGistCache = type { %struct.spgConfigOut, %struct.SpGistTypeDesc, %struct.SpGistTypeDesc, %struct.SpGistTypeDesc, %struct.SpGistTypeDesc, %struct.SpGistLUPCache }
%struct.spgConfigOut = type { i32, i32, i32, i8, i8 }
%struct.SpGistTypeDesc = type { i32, i16, i8, i8, i8 }
%struct.SpGistLUPCache = type { [8 x %struct.SpGistLastUsedPage] }
%struct.SpGistLastUsedPage = type { i32, i32 }
%struct.PageHeaderData = type { %struct.PageXLogRecPtr, i16, i16, i16, i16, i16, i16, i32, [0 x %struct.ItemIdData] }
%struct.PageXLogRecPtr = type { i32, i32 }
%struct.ItemIdData = type { i32 }
%struct.SpGistPageOpaqueData = type { i16, i16, i16, i16 }

@LocalBufferBlockPointers = external global ptr, align 8
@BufferBlocks = external global ptr, align 8

; Function Attrs: inlinehint nounwind uwtable
define internal void @PageValidateSpecialPointer(ptr noundef %0) #2 {
  %2 = alloca ptr, align 8
  store ptr %0, ptr %2, align 8
  ret void
}

; Function Attrs: inlinehint nounwind uwtable
define internal ptr @BufferGetBlock(i32 noundef %0) #2 {
  %2 = alloca ptr, align 8
  %3 = alloca i32, align 4
  store i32 %0, ptr %3, align 4
  %4 = load i32, ptr %3, align 4
  %5 = icmp slt i32 %4, 0
  br i1 %5, label %6, label %14

6:                                                ; preds = %1
  %7 = load ptr, ptr @LocalBufferBlockPointers, align 8
  %8 = load i32, ptr %3, align 4
  %9 = sub i32 0, %8
  %10 = sub i32 %9, 1
  %11 = sext i32 %10 to i64
  %12 = getelementptr inbounds ptr, ptr %7, i64 %11
  %13 = load ptr, ptr %12, align 8
  store ptr %13, ptr %2, align 8
  br label %21

14:                                               ; preds = %1
  %15 = load ptr, ptr @BufferBlocks, align 8
  %16 = load i32, ptr %3, align 4
  %17 = sub i32 %16, 1
  %18 = sext i32 %17 to i64
  %19 = mul i64 %18, 8192
  %20 = getelementptr inbounds nuw i8, ptr %15, i64 %19
  store ptr %20, ptr %2, align 8
  br label %21

21:                                               ; preds = %14, %6
  %22 = load ptr, ptr %2, align 8
  ret ptr %22
}

; Function Attrs: nounwind uwtable
define dso_local void @SpGistInitPage(ptr noundef %0, i16 noundef zeroext %1) #0 {
  %3 = alloca ptr, align 8
  %4 = alloca i16, align 2
  %5 = alloca ptr, align 8
  store ptr %0, ptr %3, align 8
  store i16 %1, ptr %4, align 2
  call void @llvm.lifetime.start.p0(i64 8, ptr %5) #7
  %6 = load ptr, ptr %3, align 8
  call void @PageInit(ptr noundef %6, i64 noundef 8192, i64 noundef 8)
  %7 = load ptr, ptr %3, align 8
  call void @PageValidateSpecialPointer(ptr noundef %7)
  %8 = load ptr, ptr %3, align 8
  %9 = load ptr, ptr %3, align 8
  %10 = getelementptr inbounds nuw %struct.PageHeaderData, ptr %9, i32 0, i32 5
  %11 = load i16, ptr %10, align 4
  %12 = zext i16 %11 to i32
  %13 = sext i32 %12 to i64
  %14 = getelementptr inbounds i8, ptr %8, i64 %13
  store ptr %14, ptr %5, align 8
  %15 = load i16, ptr %4, align 2
  %16 = load ptr, ptr %5, align 8
  %17 = getelementptr inbounds nuw %struct.SpGistPageOpaqueData, ptr %16, i32 0, i32 0
  store i16 %15, ptr %17, align 2
  %18 = load ptr, ptr %5, align 8
  %19 = getelementptr inbounds nuw %struct.SpGistPageOpaqueData, ptr %18, i32 0, i32 3
  store i16 -126, ptr %19, align 2
  call void @llvm.lifetime.end.p0(i64 8, ptr %5) #7
  ret void
}

; Function Attrs: inlinehint nounwind uwtable
define internal ptr @BufferGetPage(i32 noundef %0) #2 {
  %2 = alloca i32, align 4
  store i32 %0, ptr %2, align 4
  %3 = load i32, ptr %2, align 4
  %4 = call ptr @BufferGetBlock(i32 noundef %3)
  ret ptr %4
}

; Function Attrs: nounwind uwtable
define dso_local void @SpGistInitBuffer(i32 noundef %0, i16 noundef zeroext %1) #0 {
  %3 = alloca i32, align 4
  %4 = alloca i16, align 2
  store i32 %0, ptr %3, align 4
  store i16 %1, ptr %4, align 2
  %5 = load i32, ptr %3, align 4
  %6 = call ptr @BufferGetPage(i32 noundef %5)
  %7 = load i16, ptr %4, align 2
  call void @SpGistInitPage(ptr noundef %6, i16 noundef zeroext %7)
  ret void
}

; Function Attrs: nounwind uwtable
define internal i32 @allocNewBuffer(ptr noundef %0, i32 noundef %1) #0 {
  %3 = alloca i32, align 4
  %4 = alloca ptr, align 8
  %5 = alloca i32, align 4
  %6 = alloca ptr, align 8
  %7 = alloca i16, align 2
  %8 = alloca i32, align 4
  %9 = alloca i32, align 4
  %10 = alloca i32, align 4
  %11 = alloca i32, align 4
  store ptr %0, ptr %4, align 8
  store i32 %1, ptr %5, align 4
  call void @llvm.lifetime.start.p0(i64 8, ptr %6) #7
  %12 = load ptr, ptr %4, align 8
  %13 = call ptr @spgGetCache(ptr noundef %12)
  store ptr %13, ptr %6, align 8
  call void @llvm.lifetime.start.p0(i64 2, ptr %7) #7
  store i16 0, ptr %7, align 2
  %14 = load i32, ptr %5, align 4
  %15 = and i32 %14, 3
  %16 = icmp eq i32 %15, 3
  br i1 %16, label %17, label %22

17:                                               ; preds = %2
  %18 = load i16, ptr %7, align 2
  %19 = zext i16 %18 to i32
  %20 = or i32 %19, 4
  %21 = trunc i32 %20 to i16
  store i16 %21, ptr %7, align 2
  br label %22

22:                                               ; preds = %17, %2
  %23 = load i32, ptr %5, align 4
  %24 = and i32 %23, 4
  %25 = icmp ne i32 %24, 0
  br i1 %25, label %26, label %31

26:                                               ; preds = %22
  %27 = load i16, ptr %7, align 2
  %28 = zext i16 %27 to i32
  %29 = or i32 %28, 8
  %30 = trunc i32 %29 to i16
  store i16 %30, ptr %7, align 2
  br label %31

31:                                               ; preds = %26, %22
  br label %32

32:                                               ; preds = %90, %31
  call void @llvm.lifetime.start.p0(i64 4, ptr %8) #7
  %33 = load ptr, ptr %4, align 8
  %34 = call i32 @SpGistNewBuffer(ptr noundef %33)
  store i32 %34, ptr %8, align 4
  %35 = load i32, ptr %8, align 4
  %36 = load i16, ptr %7, align 2
  call void @SpGistInitBuffer(i32 noundef %35, i16 noundef zeroext %36)
  %37 = load i16, ptr %7, align 2
  %38 = zext i16 %37 to i32
  %39 = and i32 %38, 4
  %40 = icmp ne i32 %39, 0
  br i1 %40, label %41, label %43

41:                                               ; preds = %32
  %42 = load i32, ptr %8, align 4
  store i32 %42, ptr %3, align 4
  store i32 1, ptr %9, align 4
  br label %88

43:                                               ; preds = %32
  call void @llvm.lifetime.start.p0(i64 4, ptr %10) #7
  %44 = load i32, ptr %8, align 4
  %45 = call i32 @BufferGetBlockNumber(i32 noundef %44)
  store i32 %45, ptr %10, align 4
  call void @llvm.lifetime.start.p0(i64 4, ptr %11) #7
  %46 = load i32, ptr %10, align 4
  %47 = urem i32 %46, 3
  store i32 %47, ptr %11, align 4
  %48 = load i32, ptr %5, align 4
  %49 = and i32 %48, 3
  %50 = load i32, ptr %11, align 4
  %51 = icmp eq i32 %49, %50
  br i1 %51, label %52, label %54

52:                                               ; preds = %43
  %53 = load i32, ptr %8, align 4
  store i32 %53, ptr %3, align 4
  store i32 1, ptr %9, align 4
  br label %84

54:                                               ; preds = %43
  %55 = load i16, ptr %7, align 2
  %56 = zext i16 %55 to i32
  %57 = and i32 %56, 8
  %58 = icmp ne i32 %57, 0
  br i1 %58, label %59, label %62

59:                                               ; preds = %54
  %60 = load i32, ptr %11, align 4
  %61 = or i32 %60, 4
  store i32 %61, ptr %11, align 4
  br label %62

62:                                               ; preds = %59, %54
  %63 = load i32, ptr %10, align 4
  %64 = load ptr, ptr %6, align 8
  %65 = getelementptr inbounds nuw %struct.SpGistCache, ptr %64, i32 0, i32 5
  %66 = getelementptr inbounds nuw %struct.SpGistLUPCache, ptr %65, i32 0, i32 0
  %67 = load i32, ptr %11, align 4
  %68 = sext i32 %67 to i64
  %69 = getelementptr inbounds [8 x %struct.SpGistLastUsedPage], ptr %66, i64 0, i64 %68
  %70 = getelementptr inbounds nuw %struct.SpGistLastUsedPage, ptr %69, i32 0, i32 0
  store i32 %63, ptr %70, align 4
  %71 = load i32, ptr %8, align 4
  %72 = call ptr @BufferGetPage(i32 noundef %71)
  %73 = call i64 @PageGetExactFreeSpace(ptr noundef %72)
  %74 = trunc i64 %73 to i32
  %75 = load ptr, ptr %6, align 8
  %76 = getelementptr inbounds nuw %struct.SpGistCache, ptr %75, i32 0, i32 5
  %77 = getelementptr inbounds nuw %struct.SpGistLUPCache, ptr %76, i32 0, i32 0
  %78 = load i32, ptr %11, align 4
  %79 = sext i32 %78 to i64
  %80 = getelementptr inbounds [8 x %struct.SpGistLastUsedPage], ptr %77, i64 0, i64 %79
  %81 = getelementptr inbounds nuw %struct.SpGistLastUsedPage, ptr %80, i32 0, i32 1
  store i32 %74, ptr %81, align 4
  %82 = load i32, ptr %8, align 4
  call void @UnlockReleaseBuffer(i32 noundef %82)
  br label %83

83:                                               ; preds = %62
  store i32 0, ptr %9, align 4
  br label %84

84:                                               ; preds = %83, %52
  call void @llvm.lifetime.end.p0(i64 4, ptr %11) #7
  call void @llvm.lifetime.end.p0(i64 4, ptr %10) #7
  %85 = load i32, ptr %9, align 4
  switch i32 %85, label %88 [
    i32 0, label %86
  ]

86:                                               ; preds = %84
  br label %87

87:                                               ; preds = %86
  store i32 0, ptr %9, align 4
  br label %88

88:                                               ; preds = %87, %84, %41
  call void @llvm.lifetime.end.p0(i64 4, ptr %8) #7
  %89 = load i32, ptr %9, align 4
  switch i32 %89, label %91 [
    i32 0, label %90
  ]

90:                                               ; preds = %88
  br label %32

91:                                               ; preds = %88
  call void @llvm.lifetime.end.p0(i64 2, ptr %7) #7
  call void @llvm.lifetime.end.p0(i64 8, ptr %6) #7
  %92 = load i32, ptr %3, align 4
  ret i32 %92
}