; Function Attrs: nounwind uwtable
define internal fastcc i32 @allocNewBuffer(ptr noundef %0, i32 noundef %1) unnamed_addr #0 {
  %3 = tail call ptr @spgGetCache(ptr noundef %0)
  %4 = and i32 %1, 3
  %.not39 = icmp eq i32 %4, 3
  %spec.select = select i1 %.not39, i16 4, i16 0
  %5 = trunc i32 %1 to i16
  %6 = shl i16 %5, 1
  %7 = and i16 %6, 8
  %.131 = or disjoint i16 %spec.select, %7
  %8 = getelementptr inbounds nuw i8, ptr %3, i64 64
  br i1 %.not39, label %.split.us, label %.split

.split.us:                                        ; preds = %2
  %9 = tail call i32 @SpGistNewBuffer(ptr noundef %0)
  %10 = icmp slt i32 %9, 0
  br i1 %10, label %17, label %11

11:                                               ; preds = %.split.us
  %12 = load ptr, ptr @BufferBlocks, align 8
  %13 = add nsw i32 %9, -1
  %14 = sext i32 %13 to i64
  %15 = shl nsw i64 %14, 13
  %16 = getelementptr inbounds nuw i8, ptr %12, i64 %15
  br label %SpGistInitBuffer.exit.us

17:                                               ; preds = %.split.us
  %18 = load ptr, ptr @LocalBufferBlockPointers, align 8
  %19 = xor i32 %9, -1
  %20 = zext nneg i32 %19 to i64
  %21 = getelementptr inbounds nuw ptr, ptr %18, i64 %20
  %22 = load ptr, ptr %21, align 8
  br label %SpGistInitBuffer.exit.us

SpGistInitBuffer.exit.us:                         ; preds = %17, %11
  %.0.i.i.i.us = phi ptr [ %22, %17 ], [ %16, %11 ]
  tail call void @PageInit(ptr noundef %.0.i.i.i.us, i64 noundef 8192, i64 noundef 8) #10
  %23 = getelementptr inbounds nuw i8, ptr %.0.i.i.i.us, i64 16
  %24 = load i16, ptr %23, align 4
  %25 = zext i16 %24 to i64
  %26 = getelementptr inbounds nuw i8, ptr %.0.i.i.i.us, i64 %25
  store i16 %.131, ptr %26, align 2
  %27 = getelementptr inbounds nuw i8, ptr %26, i64 6
  store i16 -126, ptr %27, align 2
  br label %.split41

.split:                                           ; preds = %2
  %.not34 = icmp eq i16 %.131, 0
  br i1 %.not34, label %.split.split.us, label %.split.split

.split.split.us:                                  ; preds = %.split, %64
  %28 = tail call i32 @SpGistNewBuffer(ptr noundef %0)
  %29 = icmp slt i32 %28, 0
  br i1 %29, label %36, label %30

30:                                               ; preds = %.split.split.us
  %31 = load ptr, ptr @BufferBlocks, align 8
  %32 = add nsw i32 %28, -1
  %33 = sext i32 %32 to i64
  %34 = shl nsw i64 %33, 13
  %35 = getelementptr inbounds nuw i8, ptr %31, i64 %34
  br label %SpGistInitBuffer.exit.us42

36:                                               ; preds = %.split.split.us
  %37 = load ptr, ptr @LocalBufferBlockPointers, align 8
  %38 = xor i32 %28, -1
  %39 = zext nneg i32 %38 to i64
  %40 = getelementptr inbounds nuw ptr, ptr %37, i64 %39
  %41 = load ptr, ptr %40, align 8
  br label %SpGistInitBuffer.exit.us42

SpGistInitBuffer.exit.us42:                       ; preds = %36, %30
  %.0.i.i.i.us43 = phi ptr [ %41, %36 ], [ %35, %30 ]
  tail call void @PageInit(ptr noundef %.0.i.i.i.us43, i64 noundef 8192, i64 noundef 8) #10
  %42 = getelementptr inbounds nuw i8, ptr %.0.i.i.i.us43, i64 16
  %43 = load i16, ptr %42, align 4
  %44 = zext i16 %43 to i64
  %45 = getelementptr inbounds nuw i8, ptr %.0.i.i.i.us43, i64 %44
  store i16 0, ptr %45, align 2
  %46 = getelementptr inbounds nuw i8, ptr %45, i64 6
  store i16 -126, ptr %46, align 2
  %47 = tail call i32 @BufferGetBlockNumber(i32 noundef %28) #10
  %48 = urem i32 %47, 3
  %.not.us = icmp eq i32 %4, %48
  br i1 %.not.us, label %.split41, label %49

49:                                               ; preds = %SpGistInitBuffer.exit.us42
  %50 = zext nneg i32 %48 to i64
  %51 = getelementptr inbounds nuw [8 x %struct.SpGistLastUsedPage], ptr %8, i64 0, i64 %50
  store i32 %47, ptr %51, align 4
  br i1 %29, label %58, label %52

52:                                               ; preds = %49
  %53 = load ptr, ptr @BufferBlocks, align 8
  %54 = add nsw i32 %28, -1
  %55 = sext i32 %54 to i64
  %56 = shl nsw i64 %55, 13
  %57 = getelementptr inbounds nuw i8, ptr %53, i64 %56
  br label %64

58:                                               ; preds = %49
  %59 = load ptr, ptr @LocalBufferBlockPointers, align 8
  %60 = xor i32 %28, -1
  %61 = zext nneg i32 %60 to i64
  %62 = getelementptr inbounds nuw ptr, ptr %59, i64 %61
  %63 = load ptr, ptr %62, align 8
  br label %64

64:                                               ; preds = %58, %52
  %.0.i.i.us = phi ptr [ %63, %58 ], [ %57, %52 ]
  %65 = tail call i64 @PageGetExactFreeSpace(ptr noundef %.0.i.i.us) #10
  %66 = trunc i64 %65 to i32
  %67 = getelementptr inbounds nuw i8, ptr %51, i64 4
  store i32 %66, ptr %67, align 4
  tail call void @UnlockReleaseBuffer(i32 noundef %28) #10
  br label %.split.split.us

.split.split:                                     ; preds = %.split, %105
  %68 = tail call i32 @SpGistNewBuffer(ptr noundef %0)
  %69 = icmp slt i32 %68, 0
  br i1 %69, label %70, label %76

70:                                               ; preds = %.split.split
  %71 = load ptr, ptr @LocalBufferBlockPointers, align 8
  %72 = xor i32 %68, -1
  %73 = zext nneg i32 %72 to i64
  %74 = getelementptr inbounds nuw ptr, ptr %71, i64 %73
  %75 = load ptr, ptr %74, align 8
  br label %SpGistInitBuffer.exit

76:                                               ; preds = %.split.split
  %77 = load ptr, ptr @BufferBlocks, align 8
  %78 = add nsw i32 %68, -1
  %79 = sext i32 %78 to i64
  %80 = shl nsw i64 %79, 13
  %81 = getelementptr inbounds nuw i8, ptr %77, i64 %80
  br label %SpGistInitBuffer.exit

SpGistInitBuffer.exit:                            ; preds = %70, %76
  %.0.i.i.i = phi ptr [ %75, %70 ], [ %81, %76 ]
  tail call void @PageInit(ptr noundef %.0.i.i.i, i64 noundef 8192, i64 noundef 8) #10
  %82 = getelementptr inbounds nuw i8, ptr %.0.i.i.i, i64 16
  %83 = load i16, ptr %82, align 4
  %84 = zext i16 %83 to i64
  %85 = getelementptr inbounds nuw i8, ptr %.0.i.i.i, i64 %84
  store i16 %.131, ptr %85, align 2
  %86 = getelementptr inbounds nuw i8, ptr %85, i64 6
  store i16 -126, ptr %86, align 2
  %87 = tail call i32 @BufferGetBlockNumber(i32 noundef %68) #10
  %88 = urem i32 %87, 3
  %.not = icmp eq i32 %4, %88
  br i1 %.not, label %.split41, label %89

89:                                               ; preds = %SpGistInitBuffer.exit
  %90 = or disjoint i32 %88, 4
  %91 = zext nneg i32 %90 to i64
  %92 = getelementptr inbounds nuw [8 x %struct.SpGistLastUsedPage], ptr %8, i64 0, i64 %91
  store i32 %87, ptr %92, align 4
  br i1 %69, label %93, label %99

93:                                               ; preds = %89
  %94 = load ptr, ptr @LocalBufferBlockPointers, align 8
  %95 = xor i32 %68, -1
  %96 = zext nneg i32 %95 to i64
  %97 = getelementptr inbounds nuw ptr, ptr %94, i64 %96
  %98 = load ptr, ptr %97, align 8
  br label %105

99:                                               ; preds = %89
  %100 = load ptr, ptr @BufferBlocks, align 8
  %101 = add nsw i32 %68, -1
  %102 = sext i32 %101 to i64
  %103 = shl nsw i64 %102, 13
  %104 = getelementptr inbounds nuw i8, ptr %100, i64 %103
  br label %105

105:                                              ; preds = %99, %93
  %.0.i.i = phi ptr [ %98, %93 ], [ %104, %99 ]
  %106 = tail call i64 @PageGetExactFreeSpace(ptr noundef %.0.i.i) #10
  %107 = trunc i64 %106 to i32
  %108 = getelementptr inbounds nuw i8, ptr %92, i64 4
  store i32 %107, ptr %108, align 4
  tail call void @UnlockReleaseBuffer(i32 noundef %68) #10
  br label %.split.split

.split41:                                         ; preds = %SpGistInitBuffer.exit, %SpGistInitBuffer.exit.us42, %SpGistInitBuffer.exit.us
  %.us-phi = phi i32 [ %9, %SpGistInitBuffer.exit.us ], [ %28, %SpGistInitBuffer.exit.us42 ], [ %68, %SpGistInitBuffer.exit ]
  ret i32 %.us-phi
}